target datalayout = "e-m:e-p270:32:32-p271:32:32-p272:64:64-i64:64-i128:128-f80:128-n8:16:32:64-S128"
target triple = "x86_64-pc-linux-gnu"

%struct.prng_rand_t = type { [64 x i64], i64, i64 }
%"class.ncnn::Mat" = type { ptr, ptr, i64, i32, ptr, i32, i32, i32, i32, i32, i64 }

@_ZL17g_prng_rand_state = internal global %struct.prng_rand_t zeroinitializer, align 8

; Function Attrs: inlinehint mustprogress nounwind uwtable
define internal noundef i64 @_ZL9prng_randP11prng_rand_t(ptr noundef %0) #1 {
  %2 = alloca ptr, align 8
  %3 = alloca i64, align 8
  %4 = alloca i64, align 8
  %5 = alloca i64, align 8
  store ptr %0, ptr %2, align 8, !tbaa !41
  call void @llvm.lifetime.start.p0(i64 8, ptr %3) #19
  call void @llvm.lifetime.start.p0(i64 8, ptr %4) #19
  call void @llvm.lifetime.start.p0(i64 8, ptr %5) #19
  store i64 0, ptr %5, align 8, !tbaa !39
  %6 = load ptr, ptr %2, align 8, !tbaa !41
  %7 = getelementptr inbounds nuw %struct.prng_rand_t, ptr %6, i32 0, i32 2
  %8 = load i64, ptr %7, align 8, !tbaa !43
  %9 = icmp ne i64 %8, 0
  br i1 %9, label %15, label %10

10:                                               ; preds = %1
  %11 = load i64, ptr %5, align 8, !tbaa !39
  %12 = add i64 %11, 496
  store i64 %12, ptr %5, align 8, !tbaa !39
  %13 = load ptr, ptr %2, align 8, !tbaa !41
  %14 = getelementptr inbounds nuw %struct.prng_rand_t, ptr %13, i32 0, i32 2
  store i64 54, ptr %14, align 8, !tbaa !43
  br label %20

15:                                               ; preds = %1
  store i64 1, ptr %5, align 8, !tbaa !39
  %16 = load ptr, ptr %2, align 8, !tbaa !41
  %17 = getelementptr inbounds nuw %struct.prng_rand_t, ptr %16, i32 0, i32 2
  %18 = load i64, ptr %17, align 8, !tbaa !43
  %19 = add i64 %18, -1
  store i64 %19, ptr %17, align 8, !tbaa !43
  br label %20

20:                                               ; preds = %15, %10
  store i64 0, ptr %4, align 8, !tbaa !39
  br label %21

21:                                               ; preds = %55, %20
  %22 = load i64, ptr %4, align 8, !tbaa !39
  %23 = load i64, ptr %5, align 8, !tbaa !39
  %24 = icmp ult i64 %22, %23
  br i1 %24, label %25, label %58

25:                                               ; preds = %21
  %26 = load ptr, ptr %2, align 8, !tbaa !41
  %27 = getelementptr inbounds nuw %struct.prng_rand_t, ptr %26, i32 0, i32 1
  %28 = load i64, ptr %27, align 8, !tbaa !45
  store i64 %28, ptr %3, align 8, !tbaa !39
  %29 = load ptr, ptr %2, align 8, !tbaa !41
  %30 = getelementptr inbounds nuw %struct.prng_rand_t, ptr %29, i32 0, i32 0
  %31 = load i64, ptr %3, align 8, !tbaa !39
  %32 = add i64 %31, 64
  %33 = sub i64 %32, 24
  %34 = and i64 %33, 63
  %35 = getelementptr inbounds nuw [64 x i64], ptr %30, i64 0, i64 %34
  %36 = load i64, ptr %35, align 8, !tbaa !39
  %37 = load ptr, ptr %2, align 8, !tbaa !41
  %38 = getelementptr inbounds nuw %struct.prng_rand_t, ptr %37, i32 0, i32 0
  %39 = load i64, ptr %3, align 8, !tbaa !39
  %40 = add i64 %39, 64
  %41 = sub i64 %40, 55
  %42 = and i64 %41, 63
  %43 = getelementptr inbounds nuw [64 x i64], ptr %38, i64 0, i64 %42
  %44 = load i64, ptr %43, align 8, !tbaa !39
  %45 = add i64 %36, %44
  %46 = load ptr, ptr %2, align 8, !tbaa !41
  %47 = getelementptr inbounds nuw %struct.prng_rand_t, ptr %46, i32 0, i32 0
  %48 = load i64, ptr %3, align 8, !tbaa !39
  %49 = and i64 %48, 63
  %50 = getelementptr inbounds nuw [64 x i64], ptr %47, i64 0, i64 %49
  store i64 %45, ptr %50, align 8, !tbaa !39
  %51 = load ptr, ptr %2, align 8, !tbaa !41
  %52 = getelementptr inbounds nuw %struct.prng_rand_t, ptr %51, i32 0, i32 1
  %53 = load i64, ptr %52, align 8, !tbaa !45
  %54 = add i64 %53, 1
  store i64 %54, ptr %52, align 8, !tbaa !45
  br label %55

55:                                               ; preds = %25
  %56 = load i64, ptr %4, align 8, !tbaa !39
  %57 = add i64 %56, 1
  store i64 %57, ptr %4, align 8, !tbaa !39
  br label %21, !llvm.loop !49

58:                                               ; preds = %21
  %59 = load ptr, ptr %2, align 8, !tbaa !41
  %60 = getelementptr inbounds nuw %struct.prng_rand_t, ptr %59, i32 0, i32 0
  %61 = load i64, ptr %3, align 8, !tbaa !39
  %62 = and i64 %61, 63
  %63 = getelementptr inbounds nuw [64 x i64], ptr %60, i64 0, i64 %62
  %64 = load i64, ptr %63, align 8, !tbaa !39
  call void @llvm.lifetime.end.p0(i64 8, ptr %5) #19
  call void @llvm.lifetime.end.p0(i64 8, ptr %4) #19
  call void @llvm.lifetime.end.p0(i64 8, ptr %3) #19
  ret i64 %64
}

; Function Attrs: alwaysinline mustprogress nounwind uwtable
define linkonce_odr dso_local noundef ptr @_ZN4ncnn3MatcvPT_IaEEv(ptr noundef nonnull align 8 dereferenceable(72) %0) #9 comdat align 2 {
  %2 = alloca ptr, align 8
  store ptr %0, ptr %2, align 8, !tbaa !100
  %3 = load ptr, ptr %2, align 8
  %4 = getelementptr inbounds nuw %"class.ncnn::Mat", ptr %3, i32 0, i32 0
  %5 = load ptr, ptr %4, align 8, !tbaa !101
  ret ptr %5
}

; Function Attrs: alwaysinline mustprogress nounwind uwtable
define linkonce_odr dso_local noundef ptr @_ZN4ncnn3MatcvPT_ItEEv(ptr noundef nonnull align 8 dereferenceable(72) %0) #9 comdat align 2 {
  %2 = alloca ptr, align 8
  store ptr %0, ptr %2, align 8, !tbaa !100
  %3 = load ptr, ptr %2, align 8
  %4 = getelementptr inbounds nuw %"class.ncnn::Mat", ptr %3, i32 0, i32 0
  %5 = load ptr, ptr %4, align 8, !tbaa !101
  ret ptr %5
}

; Function Attrs: alwaysinline mustprogress nounwind uwtable
define linkonce_odr dso_local noundef nonnull align 4 dereferenceable(4) ptr @_ZN4ncnn3MatixEm(ptr noundef nonnull align 8 dereferenceable(72) %0, i64 noundef %1) #9 comdat align 2 {
  %3 = alloca ptr, align 8
  %4 = alloca i64, align 8
  store ptr %0, ptr %3, align 8, !tbaa !100
  store i64 %1, ptr %4, align 8, !tbaa !39
  %5 = load ptr, ptr %3, align 8
  %6 = getelementptr inbounds nuw %"class.ncnn::Mat", ptr %5, i32 0, i32 0
  %7 = load ptr, ptr %6, align 8, !tbaa !101
  %8 = load i64, ptr %4, align 8, !tbaa !39
  %9 = getelementptr inbounds nuw float, ptr %7, i64 %8
  ret ptr %9
}

; Function Attrs: mustprogress nounwind uwtable
define internal noundef float @_ZL11RandomFloatff(float noundef %0, float noundef %1) #8 {
  %3 = alloca float, align 4
  %4 = alloca float, align 4
  %5 = alloca float, align 4
  %6 = alloca float, align 4
  %7 = alloca float, align 4
  store float %0, ptr %3, align 4, !tbaa !115
  store float %1, ptr %4, align 4, !tbaa !115
  call void @llvm.lifetime.start.p0(i64 4, ptr %5) #19
  %8 = call noundef i64 @_ZL9prng_randP11prng_rand_t(ptr noundef @_ZL17g_prng_rand_state)
  %9 = uitofp i64 %8 to float
  %10 = fdiv float %9, 0x43F0000000000000
  store float %10, ptr %5, align 4, !tbaa !115
  call void @llvm.lifetime.start.p0(i64 4, ptr %6) #19
  %11 = load float, ptr %4, align 4, !tbaa !115
  %12 = load float, ptr %3, align 4, !tbaa !115
  %13 = fsub float %11, %12
  store float %13, ptr %6, align 4, !tbaa !115
  call void @llvm.lifetime.start.p0(i64 4, ptr %7) #19
  %14 = load float, ptr %5, align 4, !tbaa !115
  %15 = load float, ptr %6, align 4, !tbaa !115
  %16 = fmul float %14, %15
  store float %16, ptr %7, align 4, !tbaa !115
  %17 = load float, ptr %3, align 4, !tbaa !115
  %18 = load float, ptr %7, align 4, !tbaa !115
  %19 = fadd float %17, %18
  call void @llvm.lifetime.end.p0(i64 4, ptr %7) #19
  call void @llvm.lifetime.end.p0(i64 4, ptr %6) #19
  call void @llvm.lifetime.end.p0(i64 4, ptr %5) #19
  ret float %19
}

; Function Attrs: alwaysinline mustprogress nounwind uwtable
define linkonce_odr dso_local noundef i64 @_ZNK4ncnn3Mat5totalEv(ptr noundef nonnull align 8 dereferenceable(72) %0) #9 comdat align 2 {
  %2 = alloca ptr, align 8
  store ptr %0, ptr %2, align 8, !tbaa !100
  %3 = load ptr, ptr %2, align 8
  %4 = getelementptr inbounds nuw %"class.ncnn::Mat", ptr %3, i32 0, i32 10
  %5 = load i64, ptr %4, align 8, !tbaa !111
  %6 = getelementptr inbounds nuw %"class.ncnn::Mat", ptr %3, i32 0, i32 9
  %7 = load i32, ptr %6, align 8, !tbaa !110
  %8 = sext i32 %7 to i64
  %9 = mul i64 %5, %8
  ret i64 %9
}

; Function Attrs: mustprogress uwtable
define internal void @_ZL9RandomizeRN4ncnn3MatEff(ptr noundef nonnull align 8 dereferenceable(72) %0, float noundef %1, float noundef %2) #3 {
  %4 = alloca ptr, align 8
  %5 = alloca float, align 4
  %6 = alloca float, align 4
  %7 = alloca i64, align 8
  %8 = alloca ptr, align 8
  %9 = alloca i64, align 8
  %10 = alloca ptr, align 8
  %11 = alloca i64, align 8
  store ptr %0, ptr %4, align 8, !tbaa !100
  store float %1, ptr %5, align 4, !tbaa !115
  store float %2, ptr %6, align 4, !tbaa !115
  %12 = load ptr, ptr %4, align 8, !tbaa !100
  %13 = getelementptr inbounds nuw %"class.ncnn::Mat", ptr %12, i32 0, i32 2
  %14 = load i64, ptr %13, align 8, !tbaa !103
  %15 = icmp eq i64 %14, 4
  br i1 %15, label %16, label %34

16:                                               ; preds = %3
  call void @llvm.lifetime.start.p0(i64 8, ptr %7) #19
  store i64 0, ptr %7, align 8, !tbaa !39
  br label %17

17:                                               ; preds = %30, %16
  %18 = load i64, ptr %7, align 8, !tbaa !39
  %19 = load ptr, ptr %4, align 8, !tbaa !100
  %20 = call noundef i64 @_ZNK4ncnn3Mat5totalEv(ptr noundef nonnull align 8 dereferenceable(72) %19)
  %21 = icmp ult i64 %18, %20
  br i1 %21, label %23, label %22

22:                                               ; preds = %17
  call void @llvm.lifetime.end.p0(i64 8, ptr %7) #19
  br label %33

23:                                               ; preds = %17
  %24 = load float, ptr %5, align 4, !tbaa !115
  %25 = load float, ptr %6, align 4, !tbaa !115
  %26 = call noundef float @_ZL11RandomFloatff(float noundef %24, float noundef %25)
  %27 = load ptr, ptr %4, align 8, !tbaa !100
  %28 = load i64, ptr %7, align 8, !tbaa !39
  %29 = call noundef nonnull align 4 dereferenceable(4) ptr @_ZN4ncnn3MatixEm(ptr noundef nonnull align 8 dereferenceable(72) %27, i64 noundef %28)
  store float %26, ptr %29, align 4, !tbaa !115
  br label %30

30:                                               ; preds = %23
  %31 = load i64, ptr %7, align 8, !tbaa !39
  %32 = add i64 %31, 1
  store i64 %32, ptr %7, align 8, !tbaa !39
  br label %17, !llvm.loop !255

33:                                               ; preds = %22
  br label %86

34:                                               ; preds = %3
  %35 = load ptr, ptr %4, align 8, !tbaa !100
  %36 = getelementptr inbounds nuw %"class.ncnn::Mat", ptr %35, i32 0, i32 2
  %37 = load i64, ptr %36, align 8, !tbaa !103
  %38 = icmp eq i64 %37, 2
  br i1 %38, label %39, label %60

39:                                               ; preds = %34
  call void @llvm.lifetime.start.p0(i64 8, ptr %8) #19
  %40 = load ptr, ptr %4, align 8, !tbaa !100
  %41 = call noundef ptr @_ZN4ncnn3MatcvPT_ItEEv(ptr noundef nonnull align 8 dereferenceable(72) %40)
  store ptr %41, ptr %8, align 8, !tbaa !256
  call void @llvm.lifetime.start.p0(i64 8, ptr %9) #19
  store i64 0, ptr %9, align 8, !tbaa !39
  br label %42

42:                                               ; preds = %56, %39
  %43 = load i64, ptr %9, align 8, !tbaa !39
  %44 = load ptr, ptr %4, align 8, !tbaa !100
  %45 = call noundef i64 @_ZNK4ncnn3Mat5totalEv(ptr noundef nonnull align 8 dereferenceable(72) %44)
  %46 = icmp ult i64 %43, %45
  br i1 %46, label %48, label %47

47:                                               ; preds = %42
  call void @llvm.lifetime.end.p0(i64 8, ptr %9) #19
  br label %59

48:                                               ; preds = %42
  %49 = load float, ptr %5, align 4, !tbaa !115
  %50 = load float, ptr %6, align 4, !tbaa !115
  %51 = call noundef float @_ZL11RandomFloatff(float noundef %49, float noundef %50)
  %52 = call noundef zeroext i16 @_ZN4ncnn18float32_to_float16Ef(float noundef %51)
  %53 = load ptr, ptr %8, align 8, !tbaa !256
  %54 = load i64, ptr %9, align 8, !tbaa !39
  %55 = getelementptr inbounds nuw i16, ptr %53, i64 %54
  store i16 %52, ptr %55, align 2, !tbaa !258
  br label %56

56:                                               ; preds = %48
  %57 = load i64, ptr %9, align 8, !tbaa !39
  %58 = add i64 %57, 1
  store i64 %58, ptr %9, align 8, !tbaa !39
  br label %42, !llvm.loop !260

59:                                               ; preds = %47
  call void @llvm.lifetime.end.p0(i64 8, ptr %8) #19
  br label %85

60:                                               ; preds = %34
  %61 = load ptr, ptr %4, align 8, !tbaa !100
  %62 = getelementptr inbounds nuw %"class.ncnn::Mat", ptr %61, i32 0, i32 2
  %63 = load i64, ptr %62, align 8, !tbaa !103
  %64 = icmp eq i64 %63, 1
  br i1 %64, label %65, label %84

65:                                               ; preds = %60
  call void @llvm.lifetime.start.p0(i64 8, ptr %10) #19
  %66 = load ptr, ptr %4, align 8, !tbaa !100
  %67 = call noundef ptr @_ZN4ncnn3MatcvPT_IaEEv(ptr noundef nonnull align 8 dereferenceable(72) %66)
  store ptr %67, ptr %10, align 8, !tbaa !10
  call void @llvm.lifetime.start.p0(i64 8, ptr %11) #19
  store i64 0, ptr %11, align 8, !tbaa !39
  br label %68

68:                                               ; preds = %80, %65
  %69 = load i64, ptr %11, align 8, !tbaa !39
  %70 = load ptr, ptr %4, align 8, !tbaa !100
  %71 = call noundef i64 @_ZNK4ncnn3Mat5totalEv(ptr noundef nonnull align 8 dereferenceable(72) %70)
  %72 = icmp ult i64 %69, %71
  br i1 %72, label %74, label %73

73:                                               ; preds = %68
  call void @llvm.lifetime.end.p0(i64 8, ptr %11) #19
  br label %83

74:                                               ; preds = %68
  %75 = call noundef float @_ZL11RandomFloatff(float noundef -1.270000e+02, float noundef 1.270000e+02)
  %76 = fptosi float %75 to i8
  %77 = load ptr, ptr %10, align 8, !tbaa !10
  %78 = load i64, ptr %11, align 8, !tbaa !39
  %79 = getelementptr inbounds nuw i8, ptr %77, i64 %78
  store i8 %76, ptr %79, align 1, !tbaa !261
  br label %80

80:                                               ; preds = %74
  %81 = load i64, ptr %11, align 8, !tbaa !39
  %82 = add i64 %81, 1
  store i64 %82, ptr %11, align 8, !tbaa !39
  br label %68, !llvm.loop !262

83:                                               ; preds = %73
  call void @llvm.lifetime.end.p0(i64 8, ptr %10) #19
  br label %84

84:                                               ; preds = %83, %60
  br label %85

85:                                               ; preds = %84, %59
  br label %86

86:                                               ; preds = %85, %33
  ret void
}